Certificate:
    Data:
        Version: 3 (0x2)
        Serial Number: 2 (0x2)
        Signature Algorithm: sha256WithRSAEncryption
        Issuer: C=CN, ST=BJ, L=BJ, O=poly, OU=poly, CN=aperol.com/emailAddress=aperol.chen@poly.com
        Validity
            Not Before: Jun 28 23:45:43 2019 GMT
            Not After : Jun 25 23:45:43 2029 GMT
        Subject: C=CN, ST=BJ, O=poly, OU=poly, CN=aperolClient.com/emailAddress=aperol.chen@poly.com
        Subject Public Key Info:
            Public Key Algorithm: rsaEncryption
                RSA Public-Key: (2048 bit)
                Modulus:
                    00:bf:eb:94:55:97:2c:84:d5:fd:77:1d:cf:98:40:
                    01:ae:c0:a9:3a:57:9f:f4:22:c6:83:a0:50:8b:4a:
                    a5:93:ee:a1:8f:7b:f4:fc:1a:81:40:64:f2:ac:f1:
                    d3:0c:49:00:b8:c0:20:99:84:9d:9a:0d:7c:f1:08:
                    1d:00:10:68:23:46:2d:5b:b6:9b:0a:27:05:a9:1a:
                    f6:b6:68:0b:41:4d:7c:91:f8:23:ba:2f:4a:46:7a:
                    f5:55:ca:6b:ed:7e:4e:72:74:bc:99:05:e0:b7:b8:
                    85:a4:50:79:f2:58:ee:42:4f:21:27:8a:98:b3:6e:
                    31:b3:2d:74:32:d2:2a:b0:b7:d2:9a:2a:36:2e:9f:
                    9d:9a:85:29:59:8b:f0:73:32:e0:f1:ea:c1:b1:a7:
                    37:cb:e8:7e:36:71:7d:11:c2:55:38:f7:dd:1d:80:
                    40:ac:01:90:95:06:08:9d:97:c2:5e:3e:38:9f:88:
                    b7:d3:f0:12:73:6c:5d:4e:48:9a:69:d8:1d:e1:f2:
                    c9:9f:e1:82:da:46:ff:84:0f:74:c7:90:61:45:66:
                    cc:b6:90:61:10:62:a5:83:ab:90:a2:4b:48:ef:77:
                    18:bf:71:f8:7d:21:8c:33:a9:1f:f6:54:73:59:31:
                    47:a0:c6:e7:16:46:cc:3d:a0:19:d3:6c:f0:4e:6f:
                    30:d1
                Exponent: 65537 (0x10001)
        X509v3 extensions:
            X509v3 Basic Constraints: 
                CA:FALSE
            Netscape Comment: 
                OpenSSL Generated Certificate
            X509v3 Subject Key Identifier: 
                5A:04:3A:5E:74:1A:1C:5A:AD:8D:B1:44:04:E0:84:73:EC:3B:2B:36
            X509v3 Authority Key Identifier: 
                keyid:1D:07:C2:44:1C:7F:2F:93:A1:C9:E7:AF:82:74:92:17:32:F8:57:EB

    Signature Algorithm: sha256WithRSAEncryption
         3a:7b:88:90:11:c0:e9:33:c2:05:58:a3:75:26:10:54:19:9a:
         4a:60:fa:5a:ca:60:fb:d6:0a:5d:fd:aa:2b:27:4e:f7:de:da:
         95:29:b1:29:96:53:12:2f:67:1f:f9:d5:04:7f:63:72:86:0c:
         9c:a3:53:9d:b7:e6:aa:ae:00:ae:1c:85:c7:ea:92:53:39:ef:
         99:f2:9f:6a:c9:75:e3:d9:74:9e:7c:b9:45:b3:1f:e6:5f:05:
         cf:6f:16:d8:1f:55:81:7b:bf:f1:2e:26:aa:0e:74:bf:e0:3d:
         bc:cb:9a:eb:9a:c1:4e:5f:22:3a:b5:57:d6:c5:ed:88:48:43:
         7a:f8:5f:bf:ac:d6:24:32:af:79:15:1b:0b:5b:60:61:00:42:
         78:fd:29:de:6c:58:06:e4:b5:f1:fe:65:28:18:c4:cb:0d:dc:
         d8:3c:c0:12:4d:36:51:1f:f5:b4:ef:2c:9a:4e:24:5e:f8:75:
         d8:f9:e6:b4:dc:c3:7b:83:be:cc:80:8f:b3:8c:ef:f1:30:c4:
         a0:83:53:87:ed:5b:f3:f5:35:e2:25:2f:ef:17:ef:6a:d4:63:
         1d:ec:3d:0e:36:9e:70:1b:fa:a1:fa:ef:6a:47:03:1f:d5:82:
         1d:f6:bb:71:a5:e7:9b:f5:31:e5:de:64:c0:10:6b:9f:30:12:
         b6:ac:7a:91
-----BEGIN CERTIFICATE-----
MIID7TCCAtWgAwIBAgIBAjANBgkqhkiG9w0BAQsFADB/MQswCQYDVQQGEwJDTjEL
MAkGA1UECAwCQkoxCzAJBgNVBAcMAkJKMQ0wCwYDVQQKDARwb2x5MQ0wCwYDVQQL
DARwb2x5MRMwEQYDVQQDDAphcGVyb2wuY29tMSMwIQYJKoZIhvcNAQkBFhRhcGVy
b2wuY2hlbkBwb2x5LmNvbTAeFw0xOTA2MjgyMzQ1NDNaFw0yOTA2MjUyMzQ1NDNa
MHgxCzAJBgNVBAYTAkNOMQswCQYDVQQIDAJCSjENMAsGA1UECgwEcG9seTENMAsG
A1UECwwEcG9seTEZMBcGA1UEAwwQYXBlcm9sQ2xpZW50LmNvbTEjMCEGCSqGSIb3
DQEJARYUYXBlcm9sLmNoZW5AcG9seS5jb20wggEiMA0GCSqGSIb3DQEBAQUAA4IB
DwAwggEKAoIBAQC/65RVlyyE1f13Hc+YQAGuwKk6V5/0IsaDoFCLSqWT7qGPe/T8
GoFAZPKs8dMMSQC4wCCZhJ2aDXzxCB0AEGgjRi1btpsKJwWpGva2aAtBTXyR+CO6
L0pGevVVymvtfk5ydLyZBeC3uIWkUHnyWO5CTyEnipizbjGzLXQy0iqwt9KaKjYu
n52ahSlZi/BzMuDx6sGxpzfL6H42cX0RwlU4990dgECsAZCVBgidl8JePjifiLfT
8BJzbF1OSJpp2B3h8smf4YLaRv+ED3THkGFFZsy2kGEQYqWDq5CiS0jvdxi/cfh9
IYwzqR/2VHNZMUegxucWRsw9oBnTbPBObzDRAgMBAAGjezB5MAkGA1UdEwQCMAAw
LAYJYIZIAYb4QgENBB8WHU9wZW5TU0wgR2VuZXJhdGVkIENlcnRpZmljYXRlMB0G
A1UdDgQWBBRaBDpedBocWq2NsUQE4IRz7DsrNjAfBgNVHSMEGDAWgBQdB8JEHH8v
k6HJ56+CdJIXMvhX6zANBgkqhkiG9w0BAQsFAAOCAQEAOnuIkBHA6TPCBVijdSYQ
VBmaSmD6Wspg+9YKXf2qKydO997alSmxKZZTEi9nH/nVBH9jcoYMnKNTnbfmqq4A
rhyFx+qSUznvmfKfasl149l0nny5RbMf5l8Fz28W2B9VgXu/8S4mqg50v+A9vMua
65rBTl8iOrVX1sXtiEhDevhfv6zWJDKveRUbC1tgYQBCeP0p3mxYBuS18f5lKBjE
yw3c2DzAEk02UR/1tO8smk4kXvh12PnmtNzDe4O+zICPs4zv8TDEoINTh+1b8/U1
4iUv7xfvatRjHew9DjaecBv6ofrvakcDH9WCHfa7caXnm/Ux5d5kwBBrnzAStqx6
kQ==
-----END CERTIFICATE-----
